target datalayout = "e-m:e-p270:32:32-p271:32:32-p272:64:64-i64:64-i128:128-f80:128-n8:16:32:64-S128"
target triple = "x86_64-pc-linux-gnu"

%struct.CP_ENTRY = type { ptr, ptr, i32, i64, i8, i8, i8 }
%struct.sockaddr = type { i16, [14 x i8] }

@tempdir = dso_local global ptr null, align 8
@.str.11 = private unnamed_addr constant [33 x i8] c"Failed to create temporary file\0A\00", align 1
@.str.12 = private unnamed_addr constant [9 x i8] c"nFILDES\0A\00", align 1
@.str.13 = private unnamed_addr constant [24 x i8] c"FD scan request failed\0A\00", align 1
@.str.14 = private unnamed_addr constant [11 x i8] c"nINSTREAM\0A\00", align 1
@.str.15 = private unnamed_addr constant [34 x i8] c"Failed to communicate with clamd\0A\00", align 1

; Function Attrs: nounwind uwtable
define dso_local i32 @nc_connect_rand(ptr noundef %0, ptr noundef %1, ptr noundef %2) #0 {
  %4 = alloca i32, align 4
  %5 = alloca ptr, align 8
  %6 = alloca ptr, align 8
  %7 = alloca ptr, align 8
  %8 = alloca ptr, align 8
  %9 = alloca ptr, align 8
  store ptr %0, ptr %5, align 8
  store ptr %1, ptr %6, align 8
  store ptr %2, ptr %7, align 8
  %10 = load ptr, ptr %5, align 8
  %11 = call ptr @cpool_get_rand(ptr noundef %10)
  store ptr %11, ptr %8, align 8
  %12 = load ptr, ptr %8, align 8
  %13 = icmp ne ptr %12, null
  br i1 %13, label %15, label %14

14:                                               ; preds = %3
  store i32 1, ptr %4, align 4
  br label %67

15:                                               ; preds = %3
  %16 = load ptr, ptr %8, align 8
  %17 = getelementptr inbounds %struct.CP_ENTRY, ptr %16, i32 0, i32 0
  %18 = load ptr, ptr %17, align 8
  %19 = getelementptr inbounds %struct.sockaddr, ptr %18, i32 0, i32 0
  %20 = load i16, ptr %19, align 2
  %21 = zext i16 %20 to i32
  %22 = icmp eq i32 %21, 1
  %23 = zext i1 %22 to i32
  %24 = load ptr, ptr %7, align 8
  store i32 %23, ptr %24, align 4
  %25 = load ptr, ptr %7, align 8
  %26 = load i32, ptr %25, align 4
  %27 = icmp ne i32 %26, 0
  br i1 %27, label %28, label %55

28:                                               ; preds = %15
  %29 = load ptr, ptr @tempdir, align 8
  %30 = load ptr, ptr %6, align 8
  %31 = call i32 @cli_gentempfd(ptr noundef %29, ptr noundef %9, ptr noundef %30)
  %32 = icmp ne i32 %31, 0
  br i1 %32, label %33, label %38

33:                                               ; preds = %28
  %34 = call i32 (i32, ptr, ...) @logg(i32 noundef 5, ptr noundef @.str.11)
  %35 = load ptr, ptr %5, align 8
  %36 = load i32, ptr %35, align 4
  %37 = call i32 @close(i32 noundef %36)
  store i32 1, ptr %4, align 4
  br label %67

38:                                               ; preds = %28
  %39 = load ptr, ptr %9, align 8
  %40 = call i32 @unlink(ptr noundef %39) #8
  %41 = load ptr, ptr %9, align 8
  call void @free(ptr noundef %41) #8
  %42 = load ptr, ptr %5, align 8
  %43 = load i32, ptr %42, align 4
  %44 = call i32 @nc_send(i32 noundef %43, ptr noundef @.str.12, i64 noundef 8)
  %45 = icmp ne i32 %44, 0
  br i1 %45, label %46, label %54

46:                                               ; preds = %38
  %47 = call i32 (i32, ptr, ...) @logg(i32 noundef 5, ptr noundef @.str.13)
  %48 = load ptr, ptr %6, align 8
  %49 = load i32, ptr %48, align 4
  %50 = call i32 @close(i32 noundef %49)
  %51 = load ptr, ptr %5, align 8
  %52 = load i32, ptr %51, align 4
  %53 = call i32 @close(i32 noundef %52)
  store i32 1, ptr %4, align 4
  br label %67

54:                                               ; preds = %38
  br label %66

55:                                               ; preds = %15
  %56 = load ptr, ptr %5, align 8
  %57 = load i32, ptr %56, align 4
  %58 = call i32 @nc_send(i32 noundef %57, ptr noundef @.str.14, i64 noundef 10)
  %59 = icmp ne i32 %58, 0
  br i1 %59, label %60, label %65

60:                                               ; preds = %55
  %61 = call i32 (i32, ptr, ...) @logg(i32 noundef 5, ptr noundef @.str.15)
  %62 = load ptr, ptr %5, align 8
  %63 = load i32, ptr %62, align 4
  %64 = call i32 @close(i32 noundef %63)
  store i32 1, ptr %4, align 4
  br label %67

65:                                               ; preds = %55
  br label %66

66:                                               ; preds = %65, %54
  store i32 0, ptr %4, align 4
  br label %67

67:                                               ; preds = %66, %60, %46, %33, %14
  %68 = load i32, ptr %4, align 4
  ret i32 %68
}