; Function Attrs: nounwind uwtable
define dso_local noundef i32 @nc_connect_rand(ptr noundef %0, ptr noundef %1, ptr nocapture noundef writeonly %2) local_unnamed_addr #0 {
  %4 = alloca ptr, align 8
  %5 = tail call ptr @cpool_get_rand(ptr noundef %0) #13
  %.not = icmp eq ptr %5, null
  br i1 %.not, label %37, label %6

6:                                                ; preds = %3
  %7 = load ptr, ptr %5, align 8
  %8 = load i16, ptr %7, align 2
  %9 = icmp eq i16 %8, 1
  %10 = zext i1 %9 to i32
  store i32 %10, ptr %2, align 4
  br i1 %9, label %11, label %30

11:                                               ; preds = %6
  %12 = load ptr, ptr @tempdir, align 8
  %13 = call i32 @cli_gentempfd(ptr noundef %12, ptr noundef nonnull %4, ptr noundef %1) #13
  %.not14 = icmp eq i32 %13, 0
  br i1 %.not14, label %18, label %14

14:                                               ; preds = %11
  %15 = call i32 (i32, ptr, ...) @logg(i32 noundef 5, ptr noundef nonnull @.str.11) #13
  %16 = load i32, ptr %0, align 4
  %17 = call i32 @close(i32 noundef %16) #13
  br label %37

18:                                               ; preds = %11
  %19 = load ptr, ptr %4, align 8
  %20 = call i32 @unlink(ptr noundef %19) #13
  %21 = load ptr, ptr %4, align 8
  call void @free(ptr noundef %21) #13
  %22 = load i32, ptr %0, align 4
  %23 = call i32 @nc_send(i32 noundef %22, ptr noundef nonnull @.str.12, i64 noundef 8), !range !5
  %.not15 = icmp eq i32 %23, 0
  br i1 %.not15, label %37, label %24

24:                                               ; preds = %18
  %25 = call i32 (i32, ptr, ...) @logg(i32 noundef 5, ptr noundef nonnull @.str.13) #13
  %26 = load i32, ptr %1, align 4
  %27 = call i32 @close(i32 noundef %26) #13
  %28 = load i32, ptr %0, align 4
  %29 = call i32 @close(i32 noundef %28) #13
  br label %37

30:                                               ; preds = %6
  %31 = load i32, ptr %0, align 4
  %32 = tail call i32 @nc_send(i32 noundef %31, ptr noundef nonnull @.str.14, i64 noundef 10), !range !5
  %.not13 = icmp eq i32 %32, 0
  br i1 %.not13, label %37, label %33

33:                                               ; preds = %30
  %34 = tail call i32 (i32, ptr, ...) @logg(i32 noundef 5, ptr noundef nonnull @.str.15) #13
  %35 = load i32, ptr %0, align 4
  %36 = tail call i32 @close(i32 noundef %35) #13
  br label %37

37:                                               ; preds = %18, %30, %3, %33, %24, %14
  %.0 = phi i32 [ 1, %14 ], [ 1, %24 ], [ 1, %33 ], [ 1, %3 ], [ 0, %30 ], [ 0, %18 ]
  ret i32 %.0
}